target datalayout = "e-m:e-p270:32:32-p271:32:32-p272:64:64-i64:64-i128:128-f80:128-n8:16:32:64-S128"
target triple = "x86_64-pc-linux-gnu"

%class.RichParameterList = type { %"class.std::__cxx11::list" }
%"class.std::__cxx11::list" = type { %"class.std::__cxx11::_List_base" }
%"class.std::__cxx11::_List_base" = type { %"struct.std::__cxx11::_List_base<RichParameter *, std::allocator<RichParameter *>>::_List_impl" }
%"struct.std::__cxx11::_List_base<RichParameter *, std::allocator<RichParameter *>>::_List_impl" = type { %"struct.std::__detail::_List_node_header" }
%"struct.std::__detail::_List_node_header" = type { %"struct.std::__detail::_List_node_base", i64 }
%"struct.std::__detail::_List_node_base" = type { ptr, ptr }
%"struct.std::_List_iterator" = type { ptr }
%"struct.std::_List_node" = type { %"struct.std::__detail::_List_node_base", %"struct.__gnu_cxx::__aligned_membuf.19" }
%"struct.__gnu_cxx::__aligned_membuf.19" = type { [8 x i8] }
%class.QString = type { ptr }

@_ZTI11MLException = linkonce_odr constant { ptr, ptr, ptr } { ptr getelementptr inbounds (ptr, ptr @_ZTVN10__cxxabiv120__si_class_type_infoE, i64 2), ptr @_ZTS11MLException, ptr @_ZTISt9exception }, comdat, align 8
@.str.8 = private unnamed_addr constant [44 x i8] c"Index out of bound at RichParameterList::at\00", align 1

; Function Attrs: mustprogress nounwind uwtable
define linkonce_odr noundef ptr @_ZN9__gnu_cxx16__aligned_membufIP13RichParameterE7_M_addrEv(ptr noundef nonnull align 8 dereferenceable(8) %0) #4 comdat align 2 {
  %2 = alloca ptr, align 8
  store ptr %0, ptr %2, align 8
  %3 = load ptr, ptr %2, align 8
  %4 = getelementptr inbounds %"struct.__gnu_cxx::__aligned_membuf.19", ptr %3, i32 0, i32 0
  ret ptr %4
}

; Function Attrs: mustprogress nounwind uwtable
define linkonce_odr noundef i64 @_ZNKSt7__cxx1110_List_baseIP13RichParameterSaIS2_EE11_M_get_sizeEv(ptr noundef nonnull align 8 dereferenceable(24) %0) #4 comdat align 2 {
  %2 = alloca ptr, align 8
  store ptr %0, ptr %2, align 8
  %3 = load ptr, ptr %2, align 8
  %4 = getelementptr inbounds %"class.std::__cxx11::_List_base", ptr %3, i32 0, i32 0
  %5 = getelementptr inbounds %"struct.std::__cxx11::_List_base<RichParameter *, std::allocator<RichParameter *>>::_List_impl", ptr %4, i32 0, i32 0
  %6 = getelementptr inbounds %"struct.std::__detail::_List_node_header", ptr %5, i32 0, i32 1
  %7 = load i64, ptr %6, align 8
  ret i64 %7
}

; Function Attrs: mustprogress nounwind uwtable
define linkonce_odr noundef ptr @_ZN9__gnu_cxx16__aligned_membufIP13RichParameterE6_M_ptrEv(ptr noundef nonnull align 8 dereferenceable(8) %0) #4 comdat align 2 {
  %2 = alloca ptr, align 8
  store ptr %0, ptr %2, align 8
  %3 = load ptr, ptr %2, align 8
  %4 = call noundef ptr @_ZN9__gnu_cxx16__aligned_membufIP13RichParameterE7_M_addrEv(ptr noundef nonnull align 8 dereferenceable(8) %3) #3
  ret ptr %4
}

; Function Attrs: mustprogress nounwind uwtable
define linkonce_odr noundef nonnull align 8 dereferenceable(8) ptr @_ZNSt14_List_iteratorIP13RichParameterEmmEv(ptr noundef nonnull align 8 dereferenceable(8) %0) #4 comdat align 2 {
  %2 = alloca ptr, align 8
  store ptr %0, ptr %2, align 8
  %3 = load ptr, ptr %2, align 8
  %4 = getelementptr inbounds %"struct.std::_List_iterator", ptr %3, i32 0, i32 0
  %5 = load ptr, ptr %4, align 8
  %6 = getelementptr inbounds %"struct.std::__detail::_List_node_base", ptr %5, i32 0, i32 1
  %7 = load ptr, ptr %6, align 8
  %8 = getelementptr inbounds %"struct.std::_List_iterator", ptr %3, i32 0, i32 0
  store ptr %7, ptr %8, align 8
  ret ptr %3
}

; Function Attrs: mustprogress nounwind uwtable
define linkonce_odr noundef nonnull align 8 dereferenceable(8) ptr @_ZNSt14_List_iteratorIP13RichParameterEppEv(ptr noundef nonnull align 8 dereferenceable(8) %0) #4 comdat align 2 {
  %2 = alloca ptr, align 8
  store ptr %0, ptr %2, align 8
  %3 = load ptr, ptr %2, align 8
  %4 = getelementptr inbounds %"struct.std::_List_iterator", ptr %3, i32 0, i32 0
  %5 = load ptr, ptr %4, align 8
  %6 = getelementptr inbounds %"struct.std::__detail::_List_node_base", ptr %5, i32 0, i32 0
  %7 = load ptr, ptr %6, align 8
  %8 = getelementptr inbounds %"struct.std::_List_iterator", ptr %3, i32 0, i32 0
  store ptr %7, ptr %8, align 8
  ret ptr %3
}

; Function Attrs: noreturn nounwind uwtable
define linkonce_odr hidden void @__clang_call_terminate(ptr noundef %0) #9 comdat {
  %2 = call ptr @__cxa_begin_catch(ptr %0) #3
  call void @_ZSt9terminatev() #15
  unreachable
}

; Function Attrs: mustprogress uwtable
define linkonce_odr noundef i64 @_ZNKSt7__cxx114listIP13RichParameterSaIS2_EE13_M_node_countEv(ptr noundef nonnull align 8 dereferenceable(24) %0) #5 comdat align 2 {
  %2 = alloca ptr, align 8
  store ptr %0, ptr %2, align 8
  %3 = load ptr, ptr %2, align 8
  %4 = call noundef i64 @_ZNKSt7__cxx1110_List_baseIP13RichParameterSaIS2_EE11_M_get_sizeEv(ptr noundef nonnull align 8 dereferenceable(24) %3)
  ret i64 %4
}

; Function Attrs: mustprogress nounwind uwtable
define linkonce_odr noundef ptr @_ZNSt10_List_nodeIP13RichParameterE9_M_valptrEv(ptr noundef nonnull align 8 dereferenceable(24) %0) #4 comdat align 2 {
  %2 = alloca ptr, align 8
  store ptr %0, ptr %2, align 8
  %3 = load ptr, ptr %2, align 8
  %4 = getelementptr inbounds %"struct.std::_List_node", ptr %3, i32 0, i32 1
  %5 = call noundef ptr @_ZN9__gnu_cxx16__aligned_membufIP13RichParameterE6_M_ptrEv(ptr noundef nonnull align 8 dereferenceable(8) %4) #3
  ret ptr %5
}

; Function Attrs: mustprogress nounwind uwtable
define linkonce_odr void @_ZSt9__advanceISt14_List_iteratorIP13RichParameterElEvRT_T0_St26bidirectional_iterator_tag(ptr noundef nonnull align 8 dereferenceable(8) %0, i64 noundef %1) #4 comdat {
  %3 = alloca ptr, align 8
  %4 = alloca i64, align 8
  store ptr %0, ptr %3, align 8
  store i64 %1, ptr %4, align 8
  %5 = load i64, ptr %4, align 8
  %6 = icmp sgt i64 %5, 0
  br i1 %6, label %7, label %16

7:                                                ; preds = %2
  br label %8

8:                                                ; preds = %12, %7
  %9 = load i64, ptr %4, align 8
  %10 = add nsw i64 %9, -1
  store i64 %10, ptr %4, align 8
  %11 = icmp ne i64 %9, 0
  br i1 %11, label %12, label %15

12:                                               ; preds = %8
  %13 = load ptr, ptr %3, align 8
  %14 = call noundef nonnull align 8 dereferenceable(8) ptr @_ZNSt14_List_iteratorIP13RichParameterEppEv(ptr noundef nonnull align 8 dereferenceable(8) %13) #3
  br label %8, !llvm.loop !15

15:                                               ; preds = %8
  br label %25

16:                                               ; preds = %2
  br label %17

17:                                               ; preds = %21, %16
  %18 = load i64, ptr %4, align 8
  %19 = add nsw i64 %18, 1
  store i64 %19, ptr %4, align 8
  %20 = icmp ne i64 %18, 0
  br i1 %20, label %21, label %24

21:                                               ; preds = %17
  %22 = load ptr, ptr %3, align 8
  %23 = call noundef nonnull align 8 dereferenceable(8) ptr @_ZNSt14_List_iteratorIP13RichParameterEmmEv(ptr noundef nonnull align 8 dereferenceable(8) %22) #3
  br label %17, !llvm.loop !16

24:                                               ; preds = %17
  br label %25

25:                                               ; preds = %24, %15
  ret void
}

; Function Attrs: mustprogress nounwind uwtable
define linkonce_odr void @_ZSt19__iterator_categoryISt14_List_iteratorIP13RichParameterEENSt15iterator_traitsIT_E17iterator_categoryERKS5_(ptr noundef nonnull align 8 dereferenceable(8) %0) #4 comdat {
  %2 = alloca ptr, align 8
  store ptr %0, ptr %2, align 8
  ret void
}

; Function Attrs: mustprogress nounwind uwtable
define linkonce_odr void @_ZNSt14_List_iteratorIP13RichParameterEC2EPNSt8__detail15_List_node_baseE(ptr noundef nonnull align 8 dereferenceable(8) %0, ptr noundef %1) unnamed_addr #4 comdat align 2 {
  %3 = alloca ptr, align 8
  %4 = alloca ptr, align 8
  store ptr %0, ptr %3, align 8
  store ptr %1, ptr %4, align 8
  %5 = load ptr, ptr %3, align 8
  %6 = getelementptr inbounds %"struct.std::_List_iterator", ptr %5, i32 0, i32 0
  %7 = load ptr, ptr %4, align 8
  store ptr %7, ptr %6, align 8
  ret void
}

; Function Attrs: mustprogress nounwind uwtable
define linkonce_odr noundef i64 @_ZNKSt7__cxx114listIP13RichParameterSaIS2_EE4sizeEv(ptr noundef nonnull align 8 dereferenceable(24) %0) #4 comdat align 2 personality ptr @__gxx_personality_v0 {
  %2 = alloca ptr, align 8
  store ptr %0, ptr %2, align 8
  %3 = load ptr, ptr %2, align 8
  %4 = invoke noundef i64 @_ZNKSt7__cxx114listIP13RichParameterSaIS2_EE13_M_node_countEv(ptr noundef nonnull align 8 dereferenceable(24) %3)
          to label %5 unwind label %6

5:                                                ; preds = %1
  ret i64 %4

6:                                                ; preds = %1
  %7 = landingpad { ptr, i32 }
          catch ptr null
  %8 = extractvalue { ptr, i32 } %7, 0
  call void @__clang_call_terminate(ptr %8) #15
  unreachable
}

; Function Attrs: mustprogress nounwind uwtable
define linkonce_odr noundef nonnull align 8 dereferenceable(8) ptr @_ZNKSt14_List_iteratorIP13RichParameterEdeEv(ptr noundef nonnull align 8 dereferenceable(8) %0) #4 comdat align 2 {
  %2 = alloca ptr, align 8
  store ptr %0, ptr %2, align 8
  %3 = load ptr, ptr %2, align 8
  %4 = getelementptr inbounds %"struct.std::_List_iterator", ptr %3, i32 0, i32 0
  %5 = load ptr, ptr %4, align 8
  %6 = call noundef ptr @_ZNSt10_List_nodeIP13RichParameterE9_M_valptrEv(ptr noundef nonnull align 8 dereferenceable(24) %5)
  ret ptr %6
}

; Function Attrs: mustprogress uwtable
define linkonce_odr void @_ZSt7advanceISt14_List_iteratorIP13RichParameterEjEvRT_T0_(ptr noundef nonnull align 8 dereferenceable(8) %0, i32 noundef %1) #5 comdat {
  %3 = alloca ptr, align 8
  %4 = alloca i32, align 4
  %5 = alloca i64, align 8
  store ptr %0, ptr %3, align 8
  store i32 %1, ptr %4, align 4
  %6 = load i32, ptr %4, align 4
  %7 = zext i32 %6 to i64
  store i64 %7, ptr %5, align 8
  %8 = load ptr, ptr %3, align 8
  %9 = load i64, ptr %5, align 8
  %10 = load ptr, ptr %3, align 8
  call void @_ZSt19__iterator_categoryISt14_List_iteratorIP13RichParameterEENSt15iterator_traitsIT_E17iterator_categoryERKS5_(ptr noundef nonnull align 8 dereferenceable(8) %10)
  call void @_ZSt9__advanceISt14_List_iteratorIP13RichParameterElEvRT_T0_St26bidirectional_iterator_tag(ptr noundef nonnull align 8 dereferenceable(8) %8, i64 noundef %9)
  ret void
}

; Function Attrs: mustprogress nounwind uwtable
define linkonce_odr ptr @_ZNSt7__cxx114listIP13RichParameterSaIS2_EE5beginEv(ptr noundef nonnull align 8 dereferenceable(24) %0) #4 comdat align 2 {
  %2 = alloca %"struct.std::_List_iterator", align 8
  %3 = alloca ptr, align 8
  store ptr %0, ptr %3, align 8
  %4 = load ptr, ptr %3, align 8
  %5 = getelementptr inbounds %"class.std::__cxx11::_List_base", ptr %4, i32 0, i32 0
  %6 = getelementptr inbounds %"struct.std::__cxx11::_List_base<RichParameter *, std::allocator<RichParameter *>>::_List_impl", ptr %5, i32 0, i32 0
  %7 = getelementptr inbounds %"struct.std::__detail::_List_node_base", ptr %6, i32 0, i32 0
  %8 = load ptr, ptr %7, align 8
  call void @_ZNSt14_List_iteratorIP13RichParameterEC2EPNSt8__detail15_List_node_baseE(ptr noundef nonnull align 8 dereferenceable(8) %2, ptr noundef %8) #3
  %9 = getelementptr inbounds %"struct.std::_List_iterator", ptr %2, i32 0, i32 0
  %10 = load ptr, ptr %9, align 8
  ret ptr %10
}

; Function Attrs: mustprogress uwtable
define linkonce_odr void @_ZN7QStringC2EPKc(ptr noundef nonnull align 8 dereferenceable(8) %0, ptr noundef %1) unnamed_addr #5 comdat align 2 {
  %3 = alloca ptr, align 8
  %4 = alloca ptr, align 8
  store ptr %0, ptr %3, align 8
  store ptr %1, ptr %4, align 8
  %5 = load ptr, ptr %3, align 8
  %6 = getelementptr inbounds %class.QString, ptr %5, i32 0, i32 0
  %7 = load ptr, ptr %4, align 8
  %8 = load ptr, ptr %4, align 8
  %9 = icmp ne ptr %8, null
  br i1 %9, label %10, label %14

10:                                               ; preds = %2
  %11 = load ptr, ptr %4, align 8
  %12 = call i64 @strlen(ptr noundef %11) #19
  %13 = trunc i64 %12 to i32
  br label %15

14:                                               ; preds = %2
  br label %15

15:                                               ; preds = %14, %10
  %16 = phi i32 [ %13, %10 ], [ -1, %14 ]
  %17 = call noundef ptr @_ZN7QString16fromAscii_helperEPKci(ptr noundef %7, i32 noundef %16)
  store ptr %17, ptr %6, align 8
  ret void
}

; Function Attrs: mustprogress nounwind uwtable
define noundef i32 @_ZNK17RichParameterList4sizeEv(ptr noundef nonnull align 8 dereferenceable(24) %0) #4 align 2 {
  %2 = alloca ptr, align 8
  store ptr %0, ptr %2, align 8
  %3 = load ptr, ptr %2, align 8
  %4 = getelementptr inbounds %class.RichParameterList, ptr %3, i32 0, i32 0
  %5 = call noundef i64 @_ZNKSt7__cxx114listIP13RichParameterSaIS2_EE4sizeEv(ptr noundef nonnull align 8 dereferenceable(24) %4) #3
  %6 = trunc i64 %5 to i32
  ret i32 %6
}

; Function Attrs: mustprogress uwtable
define noundef nonnull align 8 dereferenceable(56) ptr @_ZN17RichParameterList2atEj(ptr noundef nonnull align 8 dereferenceable(24) %0, i32 noundef %1) #5 align 2 personality ptr @__gxx_personality_v0 {
  %3 = alloca ptr, align 8
  %4 = alloca i32, align 4
  %5 = alloca %class.QString, align 8
  %6 = alloca ptr, align 8
  %7 = alloca i32, align 4
  %8 = alloca i1, align 1
  %9 = alloca %"struct.std::_List_iterator", align 8
  store ptr %0, ptr %3, align 8
  store i32 %1, ptr %4, align 4
  %10 = load ptr, ptr %3, align 8
  %11 = load i32, ptr %4, align 4
  %12 = call noundef i32 @_ZNK17RichParameterList4sizeEv(ptr noundef nonnull align 8 dereferenceable(24) %10)
  %13 = icmp uge i32 %11, %12
  br i1 %13, label %14, label %30

14:                                               ; preds = %2
  store i1 true, ptr %8, align 1
  %15 = call ptr @__cxa_allocate_exception(i64 24) #3
  invoke void @_ZN7QStringC2EPKc(ptr noundef nonnull align 8 dereferenceable(8) %5, ptr noundef @.str.8)
          to label %16 unwind label %18

16:                                               ; preds = %14
  invoke void @_ZN11MLExceptionC2ERK7QString(ptr noundef nonnull align 8 dereferenceable(24) %15, ptr noundef nonnull align 8 dereferenceable(8) %5)
          to label %17 unwind label %22

17:                                               ; preds = %16
  store i1 false, ptr %8, align 1
  invoke void @__cxa_throw(ptr %15, ptr @_ZTI11MLException, ptr @_ZN11MLExceptionD2Ev) #16
          to label %42 unwind label %22

18:                                               ; preds = %14
  %19 = landingpad { ptr, i32 }
          cleanup
  %20 = extractvalue { ptr, i32 } %19, 0
  store ptr %20, ptr %6, align 8
  %21 = extractvalue { ptr, i32 } %19, 1
  store i32 %21, ptr %7, align 4
  br label %26

22:                                               ; preds = %17, %16
  %23 = landingpad { ptr, i32 }
          cleanup
  %24 = extractvalue { ptr, i32 } %23, 0
  store ptr %24, ptr %6, align 8
  %25 = extractvalue { ptr, i32 } %23, 1
  store i32 %25, ptr %7, align 4
  call void @_ZN7QStringD2Ev(ptr noundef nonnull align 8 dereferenceable(8) %5) #3
  br label %26

26:                                               ; preds = %22, %18
  %27 = load i1, ptr %8, align 1
  br i1 %27, label %28, label %29

28:                                               ; preds = %26
  call void @__cxa_free_exception(ptr %15) #3
  br label %29

29:                                               ; preds = %28, %26
  br label %37

30:                                               ; preds = %2
  %31 = getelementptr inbounds %class.RichParameterList, ptr %10, i32 0, i32 0
  %32 = call ptr @_ZNSt7__cxx114listIP13RichParameterSaIS2_EE5beginEv(ptr noundef nonnull align 8 dereferenceable(24) %31) #3
  %33 = getelementptr inbounds %"struct.std::_List_iterator", ptr %9, i32 0, i32 0
  store ptr %32, ptr %33, align 8
  %34 = load i32, ptr %4, align 4
  call void @_ZSt7advanceISt14_List_iteratorIP13RichParameterEjEvRT_T0_(ptr noundef nonnull align 8 dereferenceable(8) %9, i32 noundef %34)
  %35 = call noundef nonnull align 8 dereferenceable(8) ptr @_ZNKSt14_List_iteratorIP13RichParameterEdeEv(ptr noundef nonnull align 8 dereferenceable(8) %9) #3
  %36 = load ptr, ptr %35, align 8
  ret ptr %36

37:                                               ; preds = %29
  %38 = load ptr, ptr %6, align 8
  %39 = load i32, ptr %7, align 4
  %40 = insertvalue { ptr, i32 } poison, ptr %38, 0
  %41 = insertvalue { ptr, i32 } %40, i32 %39, 1
  resume { ptr, i32 } %41

42:                                               ; preds = %17
  unreachable
}